
insert_into_a_linked_list.out:     file format elf64-x86-64


Disassembly of section .init:

0000000000001000 <_init>:
    1000:	f3 0f 1e fa          	endbr64 
    1004:	48 83 ec 08          	sub    $0x8,%rsp
    1008:	48 8b 05 d9 2f 00 00 	mov    0x2fd9(%rip),%rax        # 3fe8 <__gmon_start__>
    100f:	48 85 c0             	test   %rax,%rax
    1012:	74 02                	je     1016 <_init+0x16>
    1014:	ff d0                	callq  *%rax
    1016:	48 83 c4 08          	add    $0x8,%rsp
    101a:	c3                   	retq   

Disassembly of section .plt:

0000000000001020 <.plt>:
    1020:	ff 35 5a 2f 00 00    	pushq  0x2f5a(%rip)        # 3f80 <_GLOBAL_OFFSET_TABLE_+0x8>
    1026:	f2 ff 25 5b 2f 00 00 	bnd jmpq *0x2f5b(%rip)        # 3f88 <_GLOBAL_OFFSET_TABLE_+0x10>
    102d:	0f 1f 00             	nopl   (%rax)
    1030:	f3 0f 1e fa          	endbr64 
    1034:	68 00 00 00 00       	pushq  $0x0
    1039:	f2 e9 e1 ff ff ff    	bnd jmpq 1020 <.plt>
    103f:	90                   	nop
    1040:	f3 0f 1e fa          	endbr64 
    1044:	68 01 00 00 00       	pushq  $0x1
    1049:	f2 e9 d1 ff ff ff    	bnd jmpq 1020 <.plt>
    104f:	90                   	nop
    1050:	f3 0f 1e fa          	endbr64 
    1054:	68 02 00 00 00       	pushq  $0x2
    1059:	f2 e9 c1 ff ff ff    	bnd jmpq 1020 <.plt>
    105f:	90                   	nop
    1060:	f3 0f 1e fa          	endbr64 
    1064:	68 03 00 00 00       	pushq  $0x3
    1069:	f2 e9 b1 ff ff ff    	bnd jmpq 1020 <.plt>
    106f:	90                   	nop
    1070:	f3 0f 1e fa          	endbr64 
    1074:	68 04 00 00 00       	pushq  $0x4
    1079:	f2 e9 a1 ff ff ff    	bnd jmpq 1020 <.plt>
    107f:	90                   	nop
    1080:	f3 0f 1e fa          	endbr64 
    1084:	68 05 00 00 00       	pushq  $0x5
    1089:	f2 e9 91 ff ff ff    	bnd jmpq 1020 <.plt>
    108f:	90                   	nop
    1090:	f3 0f 1e fa          	endbr64 
    1094:	68 06 00 00 00       	pushq  $0x6
    1099:	f2 e9 81 ff ff ff    	bnd jmpq 1020 <.plt>
    109f:	90                   	nop

Disassembly of section .plt.got:

00000000000010a0 <__cxa_finalize@plt>:
    10a0:	f3 0f 1e fa          	endbr64 
    10a4:	f2 ff 25 1d 2f 00 00 	bnd jmpq *0x2f1d(%rip)        # 3fc8 <__cxa_finalize@GLIBC_2.2.5>
    10ab:	0f 1f 44 00 00       	nopl   0x0(%rax,%rax,1)

Disassembly of section .plt.sec:

00000000000010b0 <printf@plt>:
    10b0:	f3 0f 1e fa          	endbr64 
    10b4:	f2 ff 25 d5 2e 00 00 	bnd jmpq *0x2ed5(%rip)        # 3f90 <printf@GLIBC_2.2.5>
    10bb:	0f 1f 44 00 00       	nopl   0x0(%rax,%rax,1)

00000000000010c0 <__cxa_atexit@plt>:
    10c0:	f3 0f 1e fa          	endbr64 
    10c4:	f2 ff 25 cd 2e 00 00 	bnd jmpq *0x2ecd(%rip)        # 3f98 <__cxa_atexit@GLIBC_2.2.5>
    10cb:	0f 1f 44 00 00       	nopl   0x0(%rax,%rax,1)

00000000000010d0 <_ZNSolsEPFRSoS_E@plt>:
    10d0:	f3 0f 1e fa          	endbr64 
    10d4:	f2 ff 25 c5 2e 00 00 	bnd jmpq *0x2ec5(%rip)        # 3fa0 <_ZNSolsEPFRSoS_E@GLIBCXX_3.4>
    10db:	0f 1f 44 00 00       	nopl   0x0(%rax,%rax,1)

00000000000010e0 <__stack_chk_fail@plt>:
    10e0:	f3 0f 1e fa          	endbr64 
    10e4:	f2 ff 25 bd 2e 00 00 	bnd jmpq *0x2ebd(%rip)        # 3fa8 <__stack_chk_fail@GLIBC_2.4>
    10eb:	0f 1f 44 00 00       	nopl   0x0(%rax,%rax,1)

00000000000010f0 <__isoc99_scanf@plt>:
    10f0:	f3 0f 1e fa          	endbr64 
    10f4:	f2 ff 25 b5 2e 00 00 	bnd jmpq *0x2eb5(%rip)        # 3fb0 <__isoc99_scanf@GLIBC_2.7>
    10fb:	0f 1f 44 00 00       	nopl   0x0(%rax,%rax,1)

0000000000001100 <malloc@plt>:
    1100:	f3 0f 1e fa          	endbr64 
    1104:	f2 ff 25 ad 2e 00 00 	bnd jmpq *0x2ead(%rip)        # 3fb8 <malloc@GLIBC_2.2.5>
    110b:	0f 1f 44 00 00       	nopl   0x0(%rax,%rax,1)

0000000000001110 <_ZNSt8ios_base4InitC1Ev@plt>:
    1110:	f3 0f 1e fa          	endbr64 
    1114:	f2 ff 25 a5 2e 00 00 	bnd jmpq *0x2ea5(%rip)        # 3fc0 <_ZNSt8ios_base4InitC1Ev@GLIBCXX_3.4>
    111b:	0f 1f 44 00 00       	nopl   0x0(%rax,%rax,1)

Disassembly of section .text:

0000000000001120 <_start>:
    1120:	f3 0f 1e fa          	endbr64 
    1124:	31 ed                	xor    %ebp,%ebp
    1126:	49 89 d1             	mov    %rdx,%r9
    1129:	5e                   	pop    %rsi
    112a:	48 89 e2             	mov    %rsp,%rdx
    112d:	48 83 e4 f0          	and    $0xfffffffffffffff0,%rsp
    1131:	50                   	push   %rax
    1132:	54                   	push   %rsp
    1133:	4c 8d 05 56 03 00 00 	lea    0x356(%rip),%r8        # 1490 <__libc_csu_fini>
    113a:	48 8d 0d df 02 00 00 	lea    0x2df(%rip),%rcx        # 1420 <__libc_csu_init>
    1141:	48 8d 3d 9f 01 00 00 	lea    0x19f(%rip),%rdi        # 12e7 <main>
    1148:	ff 15 92 2e 00 00    	callq  *0x2e92(%rip)        # 3fe0 <__libc_start_main@GLIBC_2.2.5>
    114e:	f4                   	hlt    
    114f:	90                   	nop

0000000000001150 <deregister_tm_clones>:
    1150:	48 8d 3d b9 2e 00 00 	lea    0x2eb9(%rip),%rdi        # 4010 <__TMC_END__>
    1157:	48 8d 05 b2 2e 00 00 	lea    0x2eb2(%rip),%rax        # 4010 <__TMC_END__>
    115e:	48 39 f8             	cmp    %rdi,%rax
    1161:	74 15                	je     1178 <deregister_tm_clones+0x28>
    1163:	48 8b 05 6e 2e 00 00 	mov    0x2e6e(%rip),%rax        # 3fd8 <_ITM_deregisterTMCloneTable>
    116a:	48 85 c0             	test   %rax,%rax
    116d:	74 09                	je     1178 <deregister_tm_clones+0x28>
    116f:	ff e0                	jmpq   *%rax
    1171:	0f 1f 80 00 00 00 00 	nopl   0x0(%rax)
    1178:	c3                   	retq   
    1179:	0f 1f 80 00 00 00 00 	nopl   0x0(%rax)

0000000000001180 <register_tm_clones>:
    1180:	48 8d 3d 89 2e 00 00 	lea    0x2e89(%rip),%rdi        # 4010 <__TMC_END__>
    1187:	48 8d 35 82 2e 00 00 	lea    0x2e82(%rip),%rsi        # 4010 <__TMC_END__>
    118e:	48 29 fe             	sub    %rdi,%rsi
    1191:	48 89 f0             	mov    %rsi,%rax
    1194:	48 c1 ee 3f          	shr    $0x3f,%rsi
    1198:	48 c1 f8 03          	sar    $0x3,%rax
    119c:	48 01 c6             	add    %rax,%rsi
    119f:	48 d1 fe             	sar    %rsi
    11a2:	74 14                	je     11b8 <register_tm_clones+0x38>
    11a4:	48 8b 05 45 2e 00 00 	mov    0x2e45(%rip),%rax        # 3ff0 <_ITM_registerTMCloneTable>
    11ab:	48 85 c0             	test   %rax,%rax
    11ae:	74 08                	je     11b8 <register_tm_clones+0x38>
    11b0:	ff e0                	jmpq   *%rax
    11b2:	66 0f 1f 44 00 00    	nopw   0x0(%rax,%rax,1)
    11b8:	c3                   	retq   
    11b9:	0f 1f 80 00 00 00 00 	nopl   0x0(%rax)

00000000000011c0 <__do_global_dtors_aux>:
    11c0:	f3 0f 1e fa          	endbr64 
    11c4:	80 3d 85 2f 00 00 00 	cmpb   $0x0,0x2f85(%rip)        # 4150 <completed.8059>
    11cb:	75 2b                	jne    11f8 <__do_global_dtors_aux+0x38>
    11cd:	55                   	push   %rbp
    11ce:	48 83 3d f2 2d 00 00 	cmpq   $0x0,0x2df2(%rip)        # 3fc8 <__cxa_finalize@GLIBC_2.2.5>
    11d5:	00 
    11d6:	48 89 e5             	mov    %rsp,%rbp
    11d9:	74 0c                	je     11e7 <__do_global_dtors_aux+0x27>
    11db:	48 8b 3d 26 2e 00 00 	mov    0x2e26(%rip),%rdi        # 4008 <__dso_handle>
    11e2:	e8 b9 fe ff ff       	callq  10a0 <__cxa_finalize@plt>
    11e7:	e8 64 ff ff ff       	callq  1150 <deregister_tm_clones>
    11ec:	c6 05 5d 2f 00 00 01 	movb   $0x1,0x2f5d(%rip)        # 4150 <completed.8059>
    11f3:	5d                   	pop    %rbp
    11f4:	c3                   	retq   
    11f5:	0f 1f 00             	nopl   (%rax)
    11f8:	c3                   	retq   
    11f9:	0f 1f 80 00 00 00 00 	nopl   0x0(%rax)

0000000000001200 <frame_dummy>:
    1200:	f3 0f 1e fa          	endbr64 
    1204:	e9 77 ff ff ff       	jmpq   1180 <register_tm_clones>

0000000000001209 <_Z9printNodev>:
    1209:	f3 0f 1e fa          	endbr64 
    120d:	55                   	push   %rbp
    120e:	48 89 e5             	mov    %rsp,%rbp
    1211:	48 83 ec 10          	sub    $0x10,%rsp
    1215:	48 8b 05 3c 2f 00 00 	mov    0x2f3c(%rip),%rax        # 4158 <head>
    121c:	48 89 45 f8          	mov    %rax,-0x8(%rbp)
    1220:	48 83 7d f8 00       	cmpq   $0x0,-0x8(%rbp)
    1225:	74 27                	je     124e <_Z9printNodev+0x45>
    1227:	48 8b 45 f8          	mov    -0x8(%rbp),%rax
    122b:	8b 00                	mov    (%rax),%eax
    122d:	89 c6                	mov    %eax,%esi
    122f:	48 8d 3d cf 0d 00 00 	lea    0xdcf(%rip),%rdi        # 2005 <_ZStL19piecewise_construct+0x1>
    1236:	b8 00 00 00 00       	mov    $0x0,%eax
    123b:	e8 70 fe ff ff       	callq  10b0 <printf@plt>
    1240:	48 8b 45 f8          	mov    -0x8(%rbp),%rax
    1244:	48 8b 40 08          	mov    0x8(%rax),%rax
    1248:	48 89 45 f8          	mov    %rax,-0x8(%rbp)
    124c:	eb d2                	jmp    1220 <_Z9printNodev+0x17>
    124e:	48 8b 05 7b 2d 00 00 	mov    0x2d7b(%rip),%rax        # 3fd0 <_ZSt4endlIcSt11char_traitsIcEERSt13basic_ostreamIT_T0_ES6_@GLIBCXX_3.4>
    1255:	48 89 c6             	mov    %rax,%rsi
    1258:	48 8d 3d e1 2d 00 00 	lea    0x2de1(%rip),%rdi        # 4040 <_ZSt4cout@@GLIBCXX_3.4>
    125f:	e8 6c fe ff ff       	callq  10d0 <_ZNSolsEPFRSoS_E@plt>
    1264:	90                   	nop
    1265:	c9                   	leaveq 
    1266:	c3                   	retq   

0000000000001267 <_Z19insertIntoEndOfNodei>:
    1267:	f3 0f 1e fa          	endbr64 
    126b:	55                   	push   %rbp
    126c:	48 89 e5             	mov    %rsp,%rbp
    126f:	48 83 ec 20          	sub    $0x20,%rsp
    1273:	89 7d ec             	mov    %edi,-0x14(%rbp)
    1276:	bf 10 00 00 00       	mov    $0x10,%edi
    127b:	e8 80 fe ff ff       	callq  1100 <malloc@plt>
    1280:	48 89 45 f8          	mov    %rax,-0x8(%rbp)
    1284:	48 8b 45 f8          	mov    -0x8(%rbp),%rax
    1288:	8b 55 ec             	mov    -0x14(%rbp),%edx
    128b:	89 10                	mov    %edx,(%rax)
    128d:	48 8b 45 f8          	mov    -0x8(%rbp),%rax
    1291:	48 c7 40 08 00 00 00 	movq   $0x0,0x8(%rax)
    1298:	00 
    1299:	48 8b 05 b8 2e 00 00 	mov    0x2eb8(%rip),%rax        # 4158 <head>
    12a0:	48 85 c0             	test   %rax,%rax
    12a3:	75 0d                	jne    12b2 <_Z19insertIntoEndOfNodei+0x4b>
    12a5:	48 8b 45 f8          	mov    -0x8(%rbp),%rax
    12a9:	48 89 05 a8 2e 00 00 	mov    %rax,0x2ea8(%rip)        # 4158 <head>
    12b0:	eb 32                	jmp    12e4 <_Z19insertIntoEndOfNodei+0x7d>
    12b2:	48 8b 05 9f 2e 00 00 	mov    0x2e9f(%rip),%rax        # 4158 <head>
    12b9:	48 89 45 f0          	mov    %rax,-0x10(%rbp)
    12bd:	48 8b 45 f0          	mov    -0x10(%rbp),%rax
    12c1:	48 8b 40 08          	mov    0x8(%rax),%rax
    12c5:	48 85 c0             	test   %rax,%rax
    12c8:	74 0e                	je     12d8 <_Z19insertIntoEndOfNodei+0x71>
    12ca:	48 8b 45 f0          	mov    -0x10(%rbp),%rax
    12ce:	48 8b 40 08          	mov    0x8(%rax),%rax
    12d2:	48 89 45 f0          	mov    %rax,-0x10(%rbp)
    12d6:	eb e5                	jmp    12bd <_Z19insertIntoEndOfNodei+0x56>
    12d8:	48 8b 45 f0          	mov    -0x10(%rbp),%rax
    12dc:	48 8b 55 f8          	mov    -0x8(%rbp),%rdx
    12e0:	48 89 50 08          	mov    %rdx,0x8(%rax)
    12e4:	90                   	nop
    12e5:	c9                   	leaveq 
    12e6:	c3                   	retq   

00000000000012e7 <main>:
    12e7:	f3 0f 1e fa          	endbr64 
    12eb:	55                   	push   %rbp
    12ec:	48 89 e5             	mov    %rsp,%rbp
    12ef:	48 83 ec 20          	sub    $0x20,%rsp
    12f3:	64 48 8b 04 25 28 00 	mov    %fs:0x28,%rax
    12fa:	00 00 
    12fc:	48 89 45 f8          	mov    %rax,-0x8(%rbp)
    1300:	31 c0                	xor    %eax,%eax
    1302:	48 c7 05 4b 2e 00 00 	movq   $0x0,0x2e4b(%rip)        # 4158 <head>
    1309:	00 00 00 00 
    130d:	48 8d 45 ec          	lea    -0x14(%rbp),%rax
    1311:	48 89 c6             	mov    %rax,%rsi
    1314:	48 8d 3d ee 0c 00 00 	lea    0xcee(%rip),%rdi        # 2009 <_ZStL19piecewise_construct+0x5>
    131b:	b8 00 00 00 00       	mov    $0x0,%eax
    1320:	e8 cb fd ff ff       	callq  10f0 <__isoc99_scanf@plt>
    1325:	c7 45 f4 00 00 00 00 	movl   $0x0,-0xc(%rbp)
    132c:	8b 45 ec             	mov    -0x14(%rbp),%eax
    132f:	39 45 f4             	cmp    %eax,-0xc(%rbp)
    1332:	7d 28                	jge    135c <main+0x75>
    1334:	48 8d 45 f0          	lea    -0x10(%rbp),%rax
    1338:	48 89 c6             	mov    %rax,%rsi
    133b:	48 8d 3d c7 0c 00 00 	lea    0xcc7(%rip),%rdi        # 2009 <_ZStL19piecewise_construct+0x5>
    1342:	b8 00 00 00 00       	mov    $0x0,%eax
    1347:	e8 a4 fd ff ff       	callq  10f0 <__isoc99_scanf@plt>
    134c:	8b 45 f0             	mov    -0x10(%rbp),%eax
    134f:	89 c7                	mov    %eax,%edi
    1351:	e8 11 ff ff ff       	callq  1267 <_Z19insertIntoEndOfNodei>
    1356:	83 45 f4 01          	addl   $0x1,-0xc(%rbp)
    135a:	eb d0                	jmp    132c <main+0x45>
    135c:	bf 01 00 00 00       	mov    $0x1,%edi
    1361:	e8 01 ff ff ff       	callq  1267 <_Z19insertIntoEndOfNodei>
    1366:	bf 02 00 00 00       	mov    $0x2,%edi
    136b:	e8 f7 fe ff ff       	callq  1267 <_Z19insertIntoEndOfNodei>
    1370:	bf 03 00 00 00       	mov    $0x3,%edi
    1375:	e8 ed fe ff ff       	callq  1267 <_Z19insertIntoEndOfNodei>
    137a:	bf 04 00 00 00       	mov    $0x4,%edi
    137f:	e8 e3 fe ff ff       	callq  1267 <_Z19insertIntoEndOfNodei>
    1384:	bf 05 00 00 00       	mov    $0x5,%edi
    1389:	e8 d9 fe ff ff       	callq  1267 <_Z19insertIntoEndOfNodei>
    138e:	e8 76 fe ff ff       	callq  1209 <_Z9printNodev>
    1393:	b8 00 00 00 00       	mov    $0x0,%eax
    1398:	48 8b 55 f8          	mov    -0x8(%rbp),%rdx
    139c:	64 48 33 14 25 28 00 	xor    %fs:0x28,%rdx
    13a3:	00 00 
    13a5:	74 05                	je     13ac <main+0xc5>
    13a7:	e8 34 fd ff ff       	callq  10e0 <__stack_chk_fail@plt>
    13ac:	c9                   	leaveq 
    13ad:	c3                   	retq   

00000000000013ae <_Z41__static_initialization_and_destruction_0ii>:
    13ae:	f3 0f 1e fa          	endbr64 
    13b2:	55                   	push   %rbp
    13b3:	48 89 e5             	mov    %rsp,%rbp
    13b6:	48 83 ec 10          	sub    $0x10,%rsp
    13ba:	89 7d fc             	mov    %edi,-0x4(%rbp)
    13bd:	89 75 f8             	mov    %esi,-0x8(%rbp)
    13c0:	83 7d fc 01          	cmpl   $0x1,-0x4(%rbp)
    13c4:	75 32                	jne    13f8 <_Z41__static_initialization_and_destruction_0ii+0x4a>
    13c6:	81 7d f8 ff ff 00 00 	cmpl   $0xffff,-0x8(%rbp)
    13cd:	75 29                	jne    13f8 <_Z41__static_initialization_and_destruction_0ii+0x4a>
    13cf:	48 8d 3d 8a 2d 00 00 	lea    0x2d8a(%rip),%rdi        # 4160 <_ZStL8__ioinit>
    13d6:	e8 35 fd ff ff       	callq  1110 <_ZNSt8ios_base4InitC1Ev@plt>
    13db:	48 8d 15 26 2c 00 00 	lea    0x2c26(%rip),%rdx        # 4008 <__dso_handle>
    13e2:	48 8d 35 77 2d 00 00 	lea    0x2d77(%rip),%rsi        # 4160 <_ZStL8__ioinit>
    13e9:	48 8b 05 08 2c 00 00 	mov    0x2c08(%rip),%rax        # 3ff8 <_ZNSt8ios_base4InitD1Ev@GLIBCXX_3.4>
    13f0:	48 89 c7             	mov    %rax,%rdi
    13f3:	e8 c8 fc ff ff       	callq  10c0 <__cxa_atexit@plt>
    13f8:	90                   	nop
    13f9:	c9                   	leaveq 
    13fa:	c3                   	retq   

00000000000013fb <_GLOBAL__sub_I_head>:
    13fb:	f3 0f 1e fa          	endbr64 
    13ff:	55                   	push   %rbp
    1400:	48 89 e5             	mov    %rsp,%rbp
    1403:	be ff ff 00 00       	mov    $0xffff,%esi
    1408:	bf 01 00 00 00       	mov    $0x1,%edi
    140d:	e8 9c ff ff ff       	callq  13ae <_Z41__static_initialization_and_destruction_0ii>
    1412:	5d                   	pop    %rbp
    1413:	c3                   	retq   
    1414:	66 2e 0f 1f 84 00 00 	nopw   %cs:0x0(%rax,%rax,1)
    141b:	00 00 00 
    141e:	66 90                	xchg   %ax,%ax

0000000000001420 <__libc_csu_init>:
    1420:	f3 0f 1e fa          	endbr64 
    1424:	41 57                	push   %r15
    1426:	4c 8d 3d 33 29 00 00 	lea    0x2933(%rip),%r15        # 3d60 <__frame_dummy_init_array_entry>
    142d:	41 56                	push   %r14
    142f:	49 89 d6             	mov    %rdx,%r14
    1432:	41 55                	push   %r13
    1434:	49 89 f5             	mov    %rsi,%r13
    1437:	41 54                	push   %r12
    1439:	41 89 fc             	mov    %edi,%r12d
    143c:	55                   	push   %rbp
    143d:	48 8d 2d 2c 29 00 00 	lea    0x292c(%rip),%rbp        # 3d70 <__do_global_dtors_aux_fini_array_entry>
    1444:	53                   	push   %rbx
    1445:	4c 29 fd             	sub    %r15,%rbp
    1448:	48 83 ec 08          	sub    $0x8,%rsp
    144c:	e8 af fb ff ff       	callq  1000 <_init>
    1451:	48 c1 fd 03          	sar    $0x3,%rbp
    1455:	74 1f                	je     1476 <__libc_csu_init+0x56>
    1457:	31 db                	xor    %ebx,%ebx
    1459:	0f 1f 80 00 00 00 00 	nopl   0x0(%rax)
    1460:	4c 89 f2             	mov    %r14,%rdx
    1463:	4c 89 ee             	mov    %r13,%rsi
    1466:	44 89 e7             	mov    %r12d,%edi
    1469:	41 ff 14 df          	callq  *(%r15,%rbx,8)
    146d:	48 83 c3 01          	add    $0x1,%rbx
    1471:	48 39 dd             	cmp    %rbx,%rbp
    1474:	75 ea                	jne    1460 <__libc_csu_init+0x40>
    1476:	48 83 c4 08          	add    $0x8,%rsp
    147a:	5b                   	pop    %rbx
    147b:	5d                   	pop    %rbp
    147c:	41 5c                	pop    %r12
    147e:	41 5d                	pop    %r13
    1480:	41 5e                	pop    %r14
    1482:	41 5f                	pop    %r15
    1484:	c3                   	retq   
    1485:	66 66 2e 0f 1f 84 00 	data16 nopw %cs:0x0(%rax,%rax,1)
    148c:	00 00 00 00 

0000000000001490 <__libc_csu_fini>:
    1490:	f3 0f 1e fa          	endbr64 
    1494:	c3                   	retq   

Disassembly of section .fini:

0000000000001498 <_fini>:
    1498:	f3 0f 1e fa          	endbr64 
    149c:	48 83 ec 08          	sub    $0x8,%rsp
    14a0:	48 83 c4 08          	add    $0x8,%rsp
    14a4:	c3                   	retq   
